target datalayout = "e-m:e-p270:32:32-p271:32:32-p272:64:64-i64:64-i128:128-f80:128-n8:16:32:64-S128"
target triple = "x86_64-pc-linux-gnu"

%"class.sat::ddfw" = type <{ %"struct.sat::ddfw::config", %class.reslimit, %class.vector.1, %class.svector.2, %class.svector.4, %class.svector.6, %class.svector.6, %class.svector.8, i32, [4 x i8], %class.vector.10, %class.svector.11, %class.svector.11, i32, i32, i32, [4 x i8], %class.indexed_uint_set, %class.indexed_uint_set, %class.random_gen, [4 x i8], i64, i32, i32, i32, i32, i64, i64, i64, i64, i64, i32, i32, %class.u_map, %class.stopwatch, %class.svector.11, i8, [7 x i8], %class.scoped_ptr, %"class.std::function", i32, [4 x i8], %class.tracked_uint_set, %class.svector.11, i8, i8, [6 x i8] }>
%"struct.sat::ddfw::config" = type { i32, i32, i32, i32, i32, i32, double }
%class.reslimit = type { %"struct.std::atomic", i8, i64, i64, %class.svector, %class.ptr_vector }
%"struct.std::atomic" = type { %"struct.std::__atomic_base" }
%"struct.std::__atomic_base" = type { i32 }
%class.svector = type { %class.vector }
%class.vector = type { ptr }
%class.ptr_vector = type { %class.vector.0 }
%class.vector.0 = type { ptr }
%class.vector.1 = type { ptr }
%class.svector.2 = type { %class.vector.3 }
%class.vector.3 = type { ptr }
%class.svector.4 = type { %class.vector.5 }
%class.vector.5 = type { ptr }
%class.svector.6 = type { %class.vector.7 }
%class.vector.7 = type { ptr }
%class.svector.8 = type { %class.vector.9 }
%class.vector.9 = type { ptr }
%class.vector.10 = type { ptr }
%class.indexed_uint_set = type { i32, %class.svector.11, %class.svector.11 }
%class.random_gen = type { i32 }
%class.u_map = type { %class.map }
%class.map = type { %class.table2map }
%class.table2map = type { %class.core_hashtable }
%class.core_hashtable = type <{ ptr, i32, i32, i32, [4 x i8] }>
%class.stopwatch = type <{ %"class.std::chrono::time_point", %"class.std::chrono::duration", i8, [7 x i8] }>
%"class.std::chrono::time_point" = type { %"class.std::chrono::duration" }
%"class.std::chrono::duration" = type { i64 }
%class.scoped_ptr = type { ptr }
%"class.std::function" = type { %"class.std::_Function_base", ptr }
%"class.std::_Function_base" = type { %"union.std::_Any_data", ptr }
%"union.std::_Any_data" = type { %"union.std::_Nocopy_types" }
%"union.std::_Nocopy_types" = type { { i64, i64 } }
%class.tracked_uint_set = type { %class.svector.13, %class.svector.11 }
%class.svector.13 = type { %class.vector.14 }
%class.vector.14 = type { ptr }
%class.svector.11 = type { %class.vector.12 }
%class.vector.12 = type { ptr }
%"struct.sat::clause_info" = type { double, i32, i32, %class.svector.2 }

; Function Attrs: mustprogress nounwind uwtable
define linkonce_odr hidden noundef zeroext i1 @_ZNK3sat11clause_info7is_trueEv(ptr noundef nonnull align 8 dereferenceable(24) %0) #4 comdat align 2 {
  %2 = alloca ptr, align 8
  store ptr %0, ptr %2, align 8, !tbaa !115
  %3 = load ptr, ptr %2, align 8
  %4 = getelementptr inbounds nuw %"struct.sat::clause_info", ptr %3, i32 0, i32 2
  %5 = load i32, ptr %4, align 4, !tbaa !157
  %6 = icmp ugt i32 %5, 0
  ret i1 %6
}

; Function Attrs: mustprogress nounwind uwtable
define linkonce_odr hidden noundef nonnull align 8 dereferenceable(24) ptr @_ZN6vectorIN3sat11clause_infoELb1EjEixEj(ptr noundef nonnull align 8 dereferenceable(8) %0, i32 noundef %1) #4 comdat align 2 {
  %3 = alloca ptr, align 8
  %4 = alloca i32, align 4
  store ptr %0, ptr %3, align 8, !tbaa !33
  store i32 %1, ptr %4, align 4, !tbaa !37
  %5 = load ptr, ptr %3, align 8
  %6 = getelementptr inbounds nuw %class.vector.1, ptr %5, i32 0, i32 0
  %7 = load ptr, ptr %6, align 8, !tbaa !166
  %8 = load i32, ptr %4, align 4, !tbaa !37
  %9 = zext i32 %8 to i64
  %10 = getelementptr inbounds nuw %"struct.sat::clause_info", ptr %7, i64 %9
  ret ptr %10
}

; Function Attrs: mustprogress nounwind uwtable
define linkonce_odr hidden noundef i32 @_ZN10random_genclEv(ptr noundef nonnull align 4 dereferenceable(4) %0) #4 comdat align 2 {
  %2 = alloca ptr, align 8
  store ptr %0, ptr %2, align 8, !tbaa !152
  %3 = load ptr, ptr %2, align 8
  %4 = getelementptr inbounds nuw %class.random_gen, ptr %3, i32 0, i32 0
  %5 = load i32, ptr %4, align 4, !tbaa !164
  %6 = zext i32 %5 to i64
  %7 = mul nsw i64 %6, 214013
  %8 = add nsw i64 %7, 2531011
  %9 = trunc i64 %8 to i32
  %10 = getelementptr inbounds nuw %class.random_gen, ptr %3, i32 0, i32 0
  store i32 %9, ptr %10, align 4, !tbaa !164
  %11 = lshr i32 %9, 16
  %12 = and i32 %11, 32767
  ret i32 %12
}

; Function Attrs: mustprogress nounwind uwtable
define linkonce_odr hidden noundef i32 @_ZNK6vectorIN3sat11clause_infoELb1EjE4sizeEv(ptr noundef nonnull align 8 dereferenceable(8) %0) #4 comdat align 2 {
  %2 = alloca i32, align 4
  %3 = alloca ptr, align 8
  store ptr %0, ptr %3, align 8, !tbaa !33
  %4 = load ptr, ptr %3, align 8
  %5 = getelementptr inbounds nuw %class.vector.1, ptr %4, i32 0, i32 0
  %6 = load ptr, ptr %5, align 8, !tbaa !166
  %7 = icmp eq ptr %6, null
  br i1 %7, label %8, label %9

8:                                                ; preds = %1
  store i32 0, ptr %2, align 4
  br label %14

9:                                                ; preds = %1
  %10 = getelementptr inbounds nuw %class.vector.1, ptr %4, i32 0, i32 0
  %11 = load ptr, ptr %10, align 8, !tbaa !166
  %12 = getelementptr inbounds i32, ptr %11, i64 -1
  %13 = load i32, ptr %12, align 4, !tbaa !37
  store i32 %13, ptr %2, align 4
  br label %14

14:                                               ; preds = %9, %8
  %15 = load i32, ptr %2, align 4
  ret i32 %15
}

; Function Attrs: mustprogress uwtable
define hidden noundef i32 @_ZN3sat4ddfw25select_random_true_clauseEv(ptr noundef nonnull align 8 dereferenceable(434) %0) #6 align 2 {
  %2 = alloca i32, align 4
  %3 = alloca ptr, align 8
  %4 = alloca i32, align 4
  %5 = alloca i32, align 4
  %6 = alloca i32, align 4
  %7 = alloca i32, align 4
  %8 = alloca ptr, align 8
  %9 = alloca i32, align 4
  %10 = alloca i32, align 4
  %11 = alloca i32, align 4
  %12 = alloca ptr, align 8
  store ptr %0, ptr %3, align 8, !tbaa !3
  %13 = load ptr, ptr %3, align 8
  call void @llvm.lifetime.start.p0(i64 4, ptr %4) #3
  %14 = getelementptr inbounds nuw %"class.sat::ddfw", ptr %13, i32 0, i32 2
  %15 = call noundef i32 @_ZNK6vectorIN3sat11clause_infoELb1EjE4sizeEv(ptr noundef nonnull align 8 dereferenceable(8) %14)
  store i32 %15, ptr %4, align 4, !tbaa !37
  call void @llvm.lifetime.start.p0(i64 4, ptr %5) #3
  store i32 0, ptr %5, align 4, !tbaa !37
  br label %16

16:                                               ; preds = %48, %1
  %17 = load i32, ptr %5, align 4, !tbaa !37
  %18 = load i32, ptr %4, align 4, !tbaa !37
  %19 = icmp ult i32 %17, %18
  br i1 %19, label %21, label %20

20:                                               ; preds = %16
  store i32 2, ptr %6, align 4
  br label %51

21:                                               ; preds = %16
  call void @llvm.lifetime.start.p0(i64 4, ptr %7) #3
  %22 = getelementptr inbounds nuw %"class.sat::ddfw", ptr %13, i32 0, i32 19
  %23 = call noundef i32 @_ZN10random_genclEv(ptr noundef nonnull align 4 dereferenceable(4) %22)
  %24 = getelementptr inbounds nuw %"class.sat::ddfw", ptr %13, i32 0, i32 19
  %25 = call noundef i32 @_ZN10random_genclEv(ptr noundef nonnull align 4 dereferenceable(4) %24)
  %26 = mul nsw i32 %23, %25
  %27 = load i32, ptr %4, align 4, !tbaa !37
  %28 = urem i32 %26, %27
  store i32 %28, ptr %7, align 4, !tbaa !37
  call void @llvm.lifetime.start.p0(i64 8, ptr %8) #3
  %29 = getelementptr inbounds nuw %"class.sat::ddfw", ptr %13, i32 0, i32 2
  %30 = load i32, ptr %7, align 4, !tbaa !37
  %31 = call noundef nonnull align 8 dereferenceable(24) ptr @_ZN6vectorIN3sat11clause_infoELb1EjEixEj(ptr noundef nonnull align 8 dereferenceable(8) %29, i32 noundef %30)
  store ptr %31, ptr %8, align 8, !tbaa !115
  %32 = load ptr, ptr %8, align 8, !tbaa !115
  %33 = call noundef zeroext i1 @_ZNK3sat11clause_info7is_trueEv(ptr noundef nonnull align 8 dereferenceable(24) %32)
  br i1 %33, label %34, label %44

34:                                               ; preds = %21
  %35 = load ptr, ptr %8, align 8, !tbaa !115
  %36 = getelementptr inbounds nuw %"struct.sat::clause_info", ptr %35, i32 0, i32 0
  %37 = load double, ptr %36, align 8, !tbaa !116
  %38 = getelementptr inbounds nuw %"class.sat::ddfw", ptr %13, i32 0, i32 8
  %39 = load i32, ptr %38, align 8, !tbaa !207
  %40 = uitofp i32 %39 to double
  %41 = fcmp oge double %37, %40
  br i1 %41, label %42, label %44

42:                                               ; preds = %34
  %43 = load i32, ptr %7, align 4, !tbaa !37
  store i32 %43, ptr %2, align 4
  store i32 1, ptr %6, align 4
  br label %45

44:                                               ; preds = %34, %21
  store i32 0, ptr %6, align 4
  br label %45

45:                                               ; preds = %44, %42
  call void @llvm.lifetime.end.p0(i64 8, ptr %8) #3
  call void @llvm.lifetime.end.p0(i64 4, ptr %7) #3
  %46 = load i32, ptr %6, align 4
  switch i32 %46, label %51 [
    i32 0, label %47
  ]

47:                                               ; preds = %45
  br label %48

48:                                               ; preds = %47
  %49 = load i32, ptr %5, align 4, !tbaa !37
  %50 = add i32 %49, 1
  store i32 %50, ptr %5, align 4, !tbaa !37
  br label %16, !llvm.loop !208

51:                                               ; preds = %45, %20
  call void @llvm.lifetime.end.p0(i64 4, ptr %5) #3
  %52 = load i32, ptr %6, align 4
  switch i32 %52, label %88 [
    i32 2, label %53
  ]

53:                                               ; preds = %51
  call void @llvm.lifetime.start.p0(i64 4, ptr %9) #3
  store i32 0, ptr %9, align 4, !tbaa !37
  call void @llvm.lifetime.start.p0(i64 4, ptr %10) #3
  store i32 -1, ptr %10, align 4, !tbaa !37
  call void @llvm.lifetime.start.p0(i64 4, ptr %11) #3
  store i32 0, ptr %11, align 4, !tbaa !37
  br label %54

54:                                               ; preds = %83, %53
  %55 = load i32, ptr %11, align 4, !tbaa !37
  %56 = load i32, ptr %4, align 4, !tbaa !37
  %57 = icmp ult i32 %55, %56
  br i1 %57, label %59, label %58

58:                                               ; preds = %54
  store i32 5, ptr %6, align 4
  call void @llvm.lifetime.end.p0(i64 4, ptr %11) #3
  br label %86

59:                                               ; preds = %54
  call void @llvm.lifetime.start.p0(i64 8, ptr %12) #3
  %60 = getelementptr inbounds nuw %"class.sat::ddfw", ptr %13, i32 0, i32 2
  %61 = load i32, ptr %11, align 4, !tbaa !37
  %62 = call noundef nonnull align 8 dereferenceable(24) ptr @_ZN6vectorIN3sat11clause_infoELb1EjEixEj(ptr noundef nonnull align 8 dereferenceable(8) %60, i32 noundef %61)
  store ptr %62, ptr %12, align 8, !tbaa !115
  %63 = load ptr, ptr %12, align 8, !tbaa !115
  %64 = call noundef zeroext i1 @_ZNK3sat11clause_info7is_trueEv(ptr noundef nonnull align 8 dereferenceable(24) %63)
  br i1 %64, label %65, label %82

65:                                               ; preds = %59
  %66 = load ptr, ptr %12, align 8, !tbaa !115
  %67 = getelementptr inbounds nuw %"struct.sat::clause_info", ptr %66, i32 0, i32 0
  %68 = load double, ptr %67, align 8, !tbaa !116
  %69 = getelementptr inbounds nuw %"class.sat::ddfw", ptr %13, i32 0, i32 8
  %70 = load i32, ptr %69, align 8, !tbaa !207
  %71 = uitofp i32 %70 to double
  %72 = fcmp oge double %68, %71
  br i1 %72, label %73, label %82

73:                                               ; preds = %65
  %74 = getelementptr inbounds nuw %"class.sat::ddfw", ptr %13, i32 0, i32 19
  %75 = call noundef i32 @_ZN10random_genclEv(ptr noundef nonnull align 4 dereferenceable(4) %74)
  %76 = load i32, ptr %9, align 4, !tbaa !37
  %77 = add i32 %76, 1
  store i32 %77, ptr %9, align 4, !tbaa !37
  %78 = urem i32 %75, %77
  %79 = icmp eq i32 %78, 0
  br i1 %79, label %80, label %82

80:                                               ; preds = %73
  %81 = load i32, ptr %11, align 4, !tbaa !37
  store i32 %81, ptr %10, align 4, !tbaa !37
  br label %82

82:                                               ; preds = %80, %73, %65, %59
  call void @llvm.lifetime.end.p0(i64 8, ptr %12) #3
  br label %83

83:                                               ; preds = %82
  %84 = load i32, ptr %11, align 4, !tbaa !37
  %85 = add i32 %84, 1
  store i32 %85, ptr %11, align 4, !tbaa !37
  br label %54, !llvm.loop !209

86:                                               ; preds = %58
  %87 = load i32, ptr %10, align 4, !tbaa !37
  store i32 %87, ptr %2, align 4
  store i32 1, ptr %6, align 4
  call void @llvm.lifetime.end.p0(i64 4, ptr %10) #3
  call void @llvm.lifetime.end.p0(i64 4, ptr %9) #3
  br label %88

88:                                               ; preds = %86, %51
  call void @llvm.lifetime.end.p0(i64 4, ptr %4) #3
  %89 = load i32, ptr %2, align 4
  ret i32 %89
}