; Function Attrs: mustprogress nofree norecurse nosync nounwind memory(read, argmem: readwrite, inaccessiblemem: none) uwtable
define hidden noundef i32 @_ZN3sat4ddfw25select_random_true_clauseEv(ptr noundef nonnull align 8 captures(none) dereferenceable(434) %0) local_unnamed_addr #16 align 2 {
  %2 = getelementptr inbounds nuw i8, ptr %0, i64 72
  %3 = load ptr, ptr %2, align 8, !tbaa !40
  %4 = icmp eq ptr %3, null
  br i1 %4, label %.thread33, label %_ZNK6vectorIN3sat11clause_infoELb1EjE4sizeEv.exit

_ZNK6vectorIN3sat11clause_infoELb1EjE4sizeEv.exit: ; preds = %1
  %5 = getelementptr inbounds i8, ptr %3, i64 -4
  %6 = load i32, ptr %5, align 4, !tbaa !26
  %.not38.not = icmp eq i32 %6, 0
  br i1 %.not38.not, label %.thread33, label %.lr.ph

.lr.ph:                                           ; preds = %_ZNK6vectorIN3sat11clause_infoELb1EjE4sizeEv.exit
  %7 = getelementptr inbounds nuw i8, ptr %0, i64 216
  %8 = getelementptr inbounds nuw i8, ptr %0, i64 120
  %9 = load i32, ptr %8, align 8
  %10 = uitofp i32 %9 to double
  %.promoted = load i32, ptr %7, align 8, !tbaa !87
  br label %15

.lr.ph45:                                         ; preds = %34
  store i32 %22, ptr %7, align 8, !tbaa !87
  %11 = getelementptr inbounds nuw i8, ptr %0, i64 120
  %12 = load i32, ptr %11, align 8
  %13 = uitofp i32 %12 to double
  %14 = getelementptr inbounds nuw i8, ptr %0, i64 216
  %wide.trip.count = zext i32 %6 to i64
  br label %36

15:                                               ; preds = %.lr.ph, %34
  %16 = phi i32 [ %.promoted, %.lr.ph ], [ %22, %34 ]
  %.02639 = phi i32 [ 0, %.lr.ph ], [ %35, %34 ]
  %17 = mul i32 %16, 214013
  %18 = add i32 %17, 2531011
  %19 = lshr i32 %18, 16
  %20 = and i32 %19, 32767
  %21 = mul i32 %18, 214013
  %22 = add i32 %21, 2531011
  %23 = lshr i32 %22, 16
  %24 = and i32 %23, 32767
  %25 = mul nuw nsw i32 %24, %20
  %26 = urem i32 %25, %6
  %27 = zext nneg i32 %26 to i64
  %28 = getelementptr inbounds nuw %"struct.sat::clause_info", ptr %3, i64 %27
  %29 = getelementptr inbounds nuw i8, ptr %28, i64 12
  %30 = load i32, ptr %29, align 4, !tbaa !101
  %.not36 = icmp eq i32 %30, 0
  br i1 %.not36, label %34, label %31

31:                                               ; preds = %15
  %32 = load double, ptr %28, align 8, !tbaa !99
  %33 = fcmp ult double %32, %10
  br i1 %33, label %34, label %.thread33.loopexit37

34:                                               ; preds = %15, %31
  %35 = add nuw i32 %.02639, 1
  %exitcond.not = icmp eq i32 %35, %6
  br i1 %exitcond.not, label %.lr.ph45, label %15, !llvm.loop !126

36:                                               ; preds = %.lr.ph45, %53
  %indvars.iv = phi i64 [ 0, %.lr.ph45 ], [ %indvars.iv.next, %53 ]
  %37 = phi i32 [ %22, %.lr.ph45 ], [ %54, %53 ]
  %.02243 = phi i32 [ -1, %.lr.ph45 ], [ %.123, %53 ]
  %.02442 = phi i32 [ 0, %.lr.ph45 ], [ %.125, %53 ]
  %38 = getelementptr inbounds nuw %"struct.sat::clause_info", ptr %3, i64 %indvars.iv
  %39 = getelementptr inbounds nuw i8, ptr %38, i64 12
  %40 = load i32, ptr %39, align 4, !tbaa !101
  %.not35 = icmp eq i32 %40, 0
  br i1 %.not35, label %53, label %41

41:                                               ; preds = %36
  %42 = load double, ptr %38, align 8, !tbaa !99
  %43 = fcmp ult double %42, %13
  br i1 %43, label %53, label %44

44:                                               ; preds = %41
  %45 = mul i32 %37, 214013
  %46 = add i32 %45, 2531011
  store i32 %46, ptr %14, align 8, !tbaa !87
  %47 = lshr i32 %46, 16
  %48 = and i32 %47, 32767
  %49 = add i32 %.02442, 1
  %50 = urem i32 %48, %49
  %51 = icmp eq i32 %50, 0
  %52 = trunc nuw i64 %indvars.iv to i32
  %spec.select = select i1 %51, i32 %52, i32 %.02243
  br label %53

53:                                               ; preds = %44, %41, %36
  %54 = phi i32 [ %37, %41 ], [ %37, %36 ], [ %46, %44 ]
  %.125 = phi i32 [ %.02442, %41 ], [ %.02442, %36 ], [ %49, %44 ]
  %.123 = phi i32 [ %.02243, %41 ], [ %.02243, %36 ], [ %spec.select, %44 ]
  %indvars.iv.next = add nuw nsw i64 %indvars.iv, 1
  %exitcond52.not = icmp eq i64 %indvars.iv.next, %wide.trip.count
  br i1 %exitcond52.not, label %.thread33, label %36, !llvm.loop !127

.thread33.loopexit37:                             ; preds = %31
  store i32 %22, ptr %7, align 8, !tbaa !87
  br label %.thread33

.thread33:                                        ; preds = %53, %1, %_ZNK6vectorIN3sat11clause_infoELb1EjE4sizeEv.exit, %.thread33.loopexit37
  %.3 = phi i32 [ %26, %.thread33.loopexit37 ], [ -1, %_ZNK6vectorIN3sat11clause_infoELb1EjE4sizeEv.exit ], [ -1, %1 ], [ %.123, %53 ]
  ret i32 %.3
}